-----BEGIN CERTIFICATE-----
MIIGTzCCBTegAwIBAgIQOVqW5rw3VW0Lttqmok6uVzANBgkqhkiG9w0BAQsFADCB
jzELMAkGA1UEBhMCR0IxGzAZBgNVBAgTEkdyZWF0ZXIgTWFuY2hlc3RlcjEQMA4G
A1UEBxMHU2FsZm9yZDEYMBYGA1UEChMPU2VjdGlnbyBMaW1pdGVkMTcwNQYDVQQD
Ey5TZWN0aWdvIFJTQSBEb21haW4gVmFsaWRhdGlvbiBTZWN1cmUgU2VydmVyIENB
MB4XDTIyMDcxNTAwMDAwMFoXDTIzMDcxNTIzNTk1OVowIDEeMBwGA1UEAxMVYWRt
aW4uZ2l2ZXN0YXRpb24ub3JnMIIBIjANBgkqhkiG9w0BAQEFAAOCAQ8AMIIBCgKC
AQEAtozpMOJ2hoaSojxgGJIUyS+FPsMk7dNVTFZ9himSXU9Va/xwnzeeqvbOArzp
7qQT+amr7XteRx8LbWIhaSey2cZfvOTh01pVycZ4IjQFNUe3Pt8ZgeS5IMjP0veP
tT0+umAqPjHSSERqWqD5RpafhbpKugTBZ3YtZR+1/9+nm0qpZup5Z9nynE7QlmRD
VG4MQD2FdKN6Q+D/P/xJXIauz1BqRauH4ZEdC8neppxndRA7V9cw9G4MbV1VniLH
a9DIT3QNGxLUl5MFGXUzWSsY+wQmp4XjL6ZA7OmdJfj8RhJryS77ZYGAmYb0oLX9
I1WRilVOyRC3k8kmdXa1GAli5QIDAQABo4IDEzCCAw8wHwYDVR0jBBgwFoAUjYxe
xFStiuF36Zv5mwXhuAGNYeEwHQYDVR0OBBYEFOSTR0QrOL0c2CYbsIeQB5yQoppN
MA4GA1UdDwEB/wQEAwIFoDAMBgNVHRMBAf8EAjAAMB0GA1UdJQQWMBQGCCsGAQUF
BwMBBggrBgEFBQcDAjBJBgNVHSAEQjBAMDQGCysGAQQBsjEBAgIHMCUwIwYIKwYB
BQUHAgEWF2h0dHBzOi8vc2VjdGlnby5jb20vQ1BTMAgGBmeBDAECATCBhAYIKwYB
BQUHAQEEeDB2ME8GCCsGAQUFBzAChkNodHRwOi8vY3J0LnNlY3RpZ28uY29tL1Nl
Y3RpZ29SU0FEb21haW5WYWxpZGF0aW9uU2VjdXJlU2VydmVyQ0EuY3J0MCMGCCsG
AQUFBzABhhdodHRwOi8vb2NzcC5zZWN0aWdvLmNvbTA7BgNVHREENDAyghVhZG1p
bi5naXZlc3RhdGlvbi5vcmeCGXd3dy5hZG1pbi5naXZlc3RhdGlvbi5vcmcwggF/
BgorBgEEAdZ5AgQCBIIBbwSCAWsBaQB2AK33vvp8/xDIi509nB4+GGq0Zyldz7EM
JMqFhjTr3IKKAAABggLvrC0AAAQDAEcwRQIgL4F0bnGJkrmYCRJviEPcoN3SyQBF
AwrygrtVq4b27NUCIQDb/6hr3CsZOz+TzOWAm0DYiQUODB4EmsiwVv9JEj/vqgB2
AHoyjFTYty22IOo44FIe6YQWcDIThU070ivBOlejUutSAAABggLv7XwAAAQDAEcw
RQIgSCHpfGm9GcgkLxcoYUP1Xpw+DSONi+j40CsuKySTW/cCIQCEg/OHdQ+y1S0r
DVPYb/XHNW6geW+BsdAfQceRzYh5lwB3AOg+0No+9QY1MudXKLyJa8kD08vREWvs
62nhd31tBr1uAAABggLvq8YAAAQDAEgwRgIhAOQxES64gmecky+1FdXfap9ynjxM
+//0Y5NJPc1VeF41AiEAyAYdcqJ7auGyW1vt4yGq26Ok6Dbhm+sY/SCVs/wJVL8w
DQYJKoZIhvcNAQELBQADggEBAF+4qU7WpqlUKdPX0y3CaXzFwxO/TJltnDdVTEF8
huLqDDbnsLJaoK81/BUCQ3Chi5o9aSjoU2ofesq+F/LD9jINixbo6qKD5uMX1lhq
N0XkdaWCEG04jWq5SBtNw8gMkTV/fQxFArtMY9tFmGFj1LlStxs8AdaIBtdQzaMD
yQoGZbpdgo3pdfYgeOhVK8iduZ9DClT3oi74J5rNvumhktFQAzcdrIL783dMbt1T
prGL5pg/v7AHPwadGiTSDyONEAuOeVITXVOjhPN82pSn/xxq6Ckuxx/MYkw3Sl9h
8mW7cRGcBTz8VsUIEKJAb5TypTEDZ1Cy6NG19uNFy5c2KlE=
-----END CERTIFICATE-----













Certificate:
    Data:
        Version: 3 (0x2)
        Serial Number:
            39:5a:96:e6:bc:37:55:6d:0b:b6:da:a6:a2:4e:ae:57
    Signature Algorithm: sha256WithRSAEncryption
        Issuer: C = GB, ST = Greater Manchester, L = Salford, O = Sectigo Limited, CN = Sectigo RSA Domain Validation Secure Server CA
        Validity
            Not Before: Jul 15 00:00:00 2022 GMT
            Not After : Jul 15 23:59:59 2023 GMT
        Subject: CN = admin.givestation.org
        Subject Public Key Info:
            Public Key Algorithm: rsaEncryption
                Public-Key: (2048 bit)
                Modulus:
                    00:b6:8c:e9:30:e2:76:86:86:92:a2:3c:60:18:92:
                    14:c9:2f:85:3e:c3:24:ed:d3:55:4c:56:7d:86:29:
                    92:5d:4f:55:6b:fc:70:9f:37:9e:aa:f6:ce:02:bc:
                    e9:ee:a4:13:f9:a9:ab:ed:7b:5e:47:1f:0b:6d:62:
                    21:69:27:b2:d9:c6:5f:bc:e4:e1:d3:5a:55:c9:c6:
                    78:22:34:05:35:47:b7:3e:df:19:81:e4:b9:20:c8:
                    cf:d2:f7:8f:b5:3d:3e:ba:60:2a:3e:31:d2:48:44:
                    6a:5a:a0:f9:46:96:9f:85:ba:4a:ba:04:c1:67:76:
                    2d:65:1f:b5:ff:df:a7:9b:4a:a9:66:ea:79:67:d9:
                    f2:9c:4e:d0:96:64:43:54:6e:0c:40:3d:85:74:a3:
                    7a:43:e0:ff:3f:fc:49:5c:86:ae:cf:50:6a:45:ab:
                    87:e1:91:1d:0b:c9:de:a6:9c:67:75:10:3b:57:d7:
                    30:f4:6e:0c:6d:5d:55:9e:22:c7:6b:d0:c8:4f:74:
                    0d:1b:12:d4:97:93:05:19:75:33:59:2b:18:fb:04:
                    26:a7:85:e3:2f:a6:40:ec:e9:9d:25:f8:fc:46:12:
                    6b:c9:2e:fb:65:81:80:99:86:f4:a0:b5:fd:23:55:
                    91:8a:55:4e:c9:10:b7:93:c9:26:75:76:b5:18:09:
                    62:e5
                Exponent: 65537 (0x10001)
        X509v3 extensions:
            X509v3 Authority Key Identifier: 
                keyid:8D:8C:5E:C4:54:AD:8A:E1:77:E9:9B:F9:9B:05:E1:B8:01:8D:61:E1

            X509v3 Subject Key Identifier: 
                E4:93:47:44:2B:38:BD:1C:D8:26:1B:B0:87:90:07:9C:90:A2:9A:4D
            X509v3 Key Usage: critical
                Digital Signature, Key Encipherment
            X509v3 Basic Constraints: critical
                CA:FALSE
            X509v3 Extended Key Usage: 
                TLS Web Server Authentication, TLS Web Client Authentication
            X509v3 Certificate Policies: 
                Policy: 1.3.6.1.4.1.6449.1.2.2.7
                  CPS: https://sectigo.com/CPS
                Policy: 2.23.140.1.2.1

            Authority Information Access: 
                CA Issuers - URI:http://crt.sectigo.com/SectigoRSADomainValidationSecureServerCA.crt
                OCSP - URI:http://ocsp.sectigo.com

            X509v3 Subject Alternative Name: 
                DNS:admin.givestation.org, DNS:www.admin.givestation.org
            1.3.6.1.4.1.11129.2.4.2: 
                ...k.i.v.....|.....=..>.j.g)]...$...4...........-.....G0E. /.tnq......o.C......E.
...U......!....k.+.;?.....@..........V.I.?...v.z2.T..-. .8.R....p2..M;.+.:W.R.R.......|.....G0E. H!.|i...$/.(aC.^.>
#.....+.+$.[..!.....u...-+
S.o..5n.yo....A....y..w..>..>..52.W(..k......k..i.w}m..n.............H0F.!..1....g../....j.r.<L...c.I=.Ux^5.!....r.{j..[[..!.....6..... ....T.
    Signature Algorithm: sha256WithRSAEncryption
         5f:b8:a9:4e:d6:a6:a9:54:29:d3:d7:d3:2d:c2:69:7c:c5:c3:
         13:bf:4c:99:6d:9c:37:55:4c:41:7c:86:e2:ea:0c:36:e7:b0:
         b2:5a:a0:af:35:fc:15:02:43:70:a1:8b:9a:3d:69:28:e8:53:
         6a:1f:7a:ca:be:17:f2:c3:f6:32:0d:8b:16:e8:ea:a2:83:e6:
         e3:17:d6:58:6a:37:45:e4:75:a5:82:10:6d:38:8d:6a:b9:48:
         1b:4d:c3:c8:0c:91:35:7f:7d:0c:45:02:bb:4c:63:db:45:98:
         61:63:d4:b9:52:b7:1b:3c:01:d6:88:06:d7:50:cd:a3:03:c9:
         0a:06:65:ba:5d:82:8d:e9:75:f6:20:78:e8:55:2b:c8:9d:b9:
         9f:43:0a:54:f7:a2:2e:f8:27:9a:cd:be:e9:a1:92:d1:50:03:
         37:1d:ac:82:fb:f3:77:4c:6e:dd:53:a6:b1:8b:e6:98:3f:bf:
         b0:07:3f:06:9d:1a:24:d2:0f:23:8d:10:0b:8e:79:52:13:5d:
         53:a3:84:f3:7c:da:94:a7:ff:1c:6a:e8:29:2e:c7:1f:cc:62:
         4c:37:4a:5f:61:f2:65:bb:71:11:9c:05:3c:fc:56:c5:08:10:
         a2:40:6f:94:f2:a5:31:03:67:50:b2:e8:d1:b5:f6:e3:45:cb:
         97:36:2a:51





